target datalayout = "e-m:e-p270:32:32-p271:32:32-p272:64:64-i64:64-i128:128-f80:128-n8:16:32:64-S128"
target triple = "x86_64-pc-linux-gnu"

@.str.1910 = private unnamed_addr constant [20 x i8] c"Intel Omni-Path MAD\00", align 1
@.str.1911 = private unnamed_addr constant [8 x i8] c"OPA MAD\00", align 1
@.str.1912 = private unnamed_addr constant [8 x i8] c"opa.mad\00", align 1
@proto_opa_mad = internal global i32 0, align 4
@opa_mad_handle = internal global ptr null, align 8
@global_mad_vendor_class = internal global ptr null, align 8
@.str.1913 = private unnamed_addr constant [10 x i8] c"0x09-0x0F\00", align 1
@global_mad_vendor_rmpp_class = internal global ptr null, align 8
@.str.1914 = private unnamed_addr constant [20 x i8] c"0x30-0x31,0x33-0x4F\00", align 1
@global_mad_application_class = internal global ptr null, align 8
@.str.1915 = private unnamed_addr constant [10 x i8] c"0x10-0x2F\00", align 1
@global_mad_reserved_class = internal global ptr null, align 8
@.str.1916 = private unnamed_addr constant [30 x i8] c"0x00,0x02,0x50-0x80,0x82-0xFF\00", align 1
@global_mad_opa_class = internal global ptr null, align 8
@.str.1917 = private unnamed_addr constant [25 x i8] c"0x01,0x03-0x04,0x32,0x81\00", align 1
@.str.1918 = private unnamed_addr constant [16 x i8] c"parse_mad_error\00", align 1
@.str.1919 = private unnamed_addr constant [50 x i8] c"Enable Parsing of Mad Payload on Mad Status Error\00", align 1
@.str.1920 = private unnamed_addr constant [62 x i8] c"Attempt to parse mad payload even when MAD.Status is non-zero\00", align 1
@pref_parse_on_mad_status_error = internal global i8 0, align 1
@.str.1921 = private unnamed_addr constant [16 x i8] c"reassemble_rmpp\00", align 1
@.str.1922 = private unnamed_addr constant [34 x i8] c"Enable Reassembly of RMPP packets\00", align 1
@.str.1923 = private unnamed_addr constant [55 x i8] c"Attempt to reassemble the mad payload of RMPP segments\00", align 1
@pref_attempt_rmpp_defragment = internal global i8 1, align 1

; Function Attrs: null_pointer_is_valid sspstrong uwtable
define hidden void @proto_register_opa_mad() #0 {
  %1 = alloca ptr, align 8
  %2 = alloca ptr, align 8
  call void @llvm.lifetime.start.p0(i64 8, ptr %1) #7
  call void @llvm.lifetime.start.p0(i64 8, ptr %2) #7
  %3 = call i32 @proto_register_protocol(ptr noundef @.str.1910, ptr noundef @.str.1911, ptr noundef @.str.1912)
  store i32 %3, ptr @proto_opa_mad, align 4
  %4 = load i32, ptr @proto_opa_mad, align 4
  %5 = call ptr @register_dissector(ptr noundef @.str.1912, ptr noundef @dissect_opa_mad, i32 noundef %4)
  store ptr %5, ptr @opa_mad_handle, align 8
  %6 = load i32, ptr @proto_opa_mad, align 4
  call void @proto_register_field_array(i32 noundef %6, ptr noundef @proto_register_opa_mad.hf, i32 noundef 1185)
  call void @proto_register_subtree_array(ptr noundef @proto_register_opa_mad.ett, i32 noundef 153)
  %7 = load i32, ptr @proto_opa_mad, align 4
  %8 = call ptr @expert_register_protocol(i32 noundef %7)
  store ptr %8, ptr %2, align 8
  %9 = load ptr, ptr %2, align 8
  call void @expert_register_field_array(ptr noundef %9, ptr noundef @proto_register_opa_mad.ei, i32 noundef 5)
  %10 = call ptr @wmem_epan_scope()
  %11 = call i32 @range_convert_str(ptr noundef %10, ptr noundef @global_mad_vendor_class, ptr noundef @.str.1913, i32 noundef 255)
  %12 = call ptr @wmem_epan_scope()
  %13 = call i32 @range_convert_str(ptr noundef %12, ptr noundef @global_mad_vendor_rmpp_class, ptr noundef @.str.1914, i32 noundef 255)
  %14 = call ptr @wmem_epan_scope()
  %15 = call i32 @range_convert_str(ptr noundef %14, ptr noundef @global_mad_application_class, ptr noundef @.str.1915, i32 noundef 255)
  %16 = call ptr @wmem_epan_scope()
  %17 = call i32 @range_convert_str(ptr noundef %16, ptr noundef @global_mad_reserved_class, ptr noundef @.str.1916, i32 noundef 255)
  %18 = call ptr @wmem_epan_scope()
  %19 = call i32 @range_convert_str(ptr noundef %18, ptr noundef @global_mad_opa_class, ptr noundef @.str.1917, i32 noundef 255)
  %20 = load i32, ptr @proto_opa_mad, align 4
  %21 = call ptr @prefs_register_protocol(i32 noundef %20, ptr noundef null)
  store ptr %21, ptr %1, align 8
  %22 = load ptr, ptr %1, align 8
  call void @prefs_register_bool_preference(ptr noundef %22, ptr noundef @.str.1918, ptr noundef @.str.1919, ptr noundef @.str.1920, ptr noundef @pref_parse_on_mad_status_error)
  %23 = load ptr, ptr %1, align 8
  call void @prefs_register_bool_preference(ptr noundef %23, ptr noundef @.str.1921, ptr noundef @.str.1922, ptr noundef @.str.1923, ptr noundef @pref_attempt_rmpp_defragment)
  call void @register_init_routine(ptr noundef @opa_mad_init)
  call void @register_cleanup_routine(ptr noundef @opa_mad_cleanup)
  call void @llvm.lifetime.end.p0(i64 8, ptr %2) #7
  call void @llvm.lifetime.end.p0(i64 8, ptr %1) #7
  ret void
}