; Function Attrs: null_pointer_is_valid sspstrong uwtable
define hidden void @proto_register_opa_mad() local_unnamed_addr #0 {
  %1 = tail call i32 @proto_register_protocol(ptr noundef nonnull @.str.1910, ptr noundef nonnull @.str.1911, ptr noundef nonnull @.str.1912)
  store i32 %1, ptr @proto_opa_mad, align 4
  %2 = tail call ptr @register_dissector(ptr noundef nonnull @.str.1912, ptr noundef nonnull @dissect_opa_mad, i32 noundef %1)
  store ptr %2, ptr @opa_mad_handle, align 8
  %3 = load i32, ptr @proto_opa_mad, align 4
  tail call void @proto_register_field_array(i32 noundef %3, ptr noundef nonnull @proto_register_opa_mad.hf, i32 noundef 1185)
  tail call void @proto_register_subtree_array(ptr noundef nonnull @proto_register_opa_mad.ett, i32 noundef 153)
  %4 = load i32, ptr @proto_opa_mad, align 4
  %5 = tail call ptr @expert_register_protocol(i32 noundef %4)
  tail call void @expert_register_field_array(ptr noundef %5, ptr noundef nonnull @proto_register_opa_mad.ei, i32 noundef 5)
  %6 = tail call ptr @wmem_epan_scope()
  %7 = tail call i32 @range_convert_str(ptr noundef %6, ptr noundef nonnull @global_mad_vendor_class, ptr noundef nonnull @.str.1913, i32 noundef 255)
  %8 = tail call ptr @wmem_epan_scope()
  %9 = tail call i32 @range_convert_str(ptr noundef %8, ptr noundef nonnull @global_mad_vendor_rmpp_class, ptr noundef nonnull @.str.1914, i32 noundef 255)
  %10 = tail call ptr @wmem_epan_scope()
  %11 = tail call i32 @range_convert_str(ptr noundef %10, ptr noundef nonnull @global_mad_application_class, ptr noundef nonnull @.str.1915, i32 noundef 255)
  %12 = tail call ptr @wmem_epan_scope()
  %13 = tail call i32 @range_convert_str(ptr noundef %12, ptr noundef nonnull @global_mad_reserved_class, ptr noundef nonnull @.str.1916, i32 noundef 255)
  %14 = tail call ptr @wmem_epan_scope()
  %15 = tail call i32 @range_convert_str(ptr noundef %14, ptr noundef nonnull @global_mad_opa_class, ptr noundef nonnull @.str.1917, i32 noundef 255)
  %16 = load i32, ptr @proto_opa_mad, align 4
  %17 = tail call ptr @prefs_register_protocol(i32 noundef %16, ptr noundef null)
  tail call void @prefs_register_bool_preference(ptr noundef %17, ptr noundef nonnull @.str.1918, ptr noundef nonnull @.str.1919, ptr noundef nonnull @.str.1920, ptr noundef nonnull @pref_parse_on_mad_status_error)
  tail call void @prefs_register_bool_preference(ptr noundef %17, ptr noundef nonnull @.str.1921, ptr noundef nonnull @.str.1922, ptr noundef nonnull @.str.1923, ptr noundef nonnull @pref_attempt_rmpp_defragment)
  tail call void @register_init_routine(ptr noundef nonnull @opa_mad_init)
  tail call void @register_cleanup_routine(ptr noundef nonnull @opa_mad_cleanup)
  ret void
}